target datalayout = "e-m:e-p270:32:32-p271:32:32-p272:64:64-i64:64-i128:128-f80:128-n8:16:32:64-S128"
target triple = "x86_64-pc-linux-gnu"

%struct._address = type { i32, i32, ptr, ptr }

; Function Attrs: inlinehint nounwind null_pointer_is_valid sspstrong uwtable
define internal i32 @cmp_address(ptr noundef %0, ptr noundef %1) #5 {
  %3 = alloca i32, align 4
  %4 = alloca ptr, align 8
  %5 = alloca ptr, align 8
  store ptr %0, ptr %4, align 8
  store ptr %1, ptr %5, align 8
  %6 = load ptr, ptr %4, align 8
  %7 = getelementptr inbounds nuw %struct._address, ptr %6, i32 0, i32 0
  %8 = load i32, ptr %7, align 8
  %9 = load ptr, ptr %5, align 8
  %10 = getelementptr inbounds nuw %struct._address, ptr %9, i32 0, i32 0
  %11 = load i32, ptr %10, align 8
  %12 = icmp sgt i32 %8, %11
  br i1 %12, label %13, label %14

13:                                               ; preds = %2
  store i32 1, ptr %3, align 4
  br label %59

14:                                               ; preds = %2
  %15 = load ptr, ptr %4, align 8
  %16 = getelementptr inbounds nuw %struct._address, ptr %15, i32 0, i32 0
  %17 = load i32, ptr %16, align 8
  %18 = load ptr, ptr %5, align 8
  %19 = getelementptr inbounds nuw %struct._address, ptr %18, i32 0, i32 0
  %20 = load i32, ptr %19, align 8
  %21 = icmp slt i32 %17, %20
  br i1 %21, label %22, label %23

22:                                               ; preds = %14
  store i32 -1, ptr %3, align 4
  br label %59

23:                                               ; preds = %14
  %24 = load ptr, ptr %4, align 8
  %25 = getelementptr inbounds nuw %struct._address, ptr %24, i32 0, i32 1
  %26 = load i32, ptr %25, align 4
  %27 = load ptr, ptr %5, align 8
  %28 = getelementptr inbounds nuw %struct._address, ptr %27, i32 0, i32 1
  %29 = load i32, ptr %28, align 4
  %30 = icmp sgt i32 %26, %29
  br i1 %30, label %31, label %32

31:                                               ; preds = %23
  store i32 1, ptr %3, align 4
  br label %59

32:                                               ; preds = %23
  %33 = load ptr, ptr %4, align 8
  %34 = getelementptr inbounds nuw %struct._address, ptr %33, i32 0, i32 1
  %35 = load i32, ptr %34, align 4
  %36 = load ptr, ptr %5, align 8
  %37 = getelementptr inbounds nuw %struct._address, ptr %36, i32 0, i32 1
  %38 = load i32, ptr %37, align 4
  %39 = icmp slt i32 %35, %38
  br i1 %39, label %40, label %41

40:                                               ; preds = %32
  store i32 -1, ptr %3, align 4
  br label %59

41:                                               ; preds = %32
  %42 = load ptr, ptr %4, align 8
  %43 = getelementptr inbounds nuw %struct._address, ptr %42, i32 0, i32 1
  %44 = load i32, ptr %43, align 4
  %45 = icmp eq i32 %44, 0
  br i1 %45, label %46, label %47

46:                                               ; preds = %41
  store i32 0, ptr %3, align 4
  br label %59

47:                                               ; preds = %41
  %48 = load ptr, ptr %4, align 8
  %49 = getelementptr inbounds nuw %struct._address, ptr %48, i32 0, i32 2
  %50 = load ptr, ptr %49, align 8
  %51 = load ptr, ptr %5, align 8
  %52 = getelementptr inbounds nuw %struct._address, ptr %51, i32 0, i32 2
  %53 = load ptr, ptr %52, align 8
  %54 = load ptr, ptr %4, align 8
  %55 = getelementptr inbounds nuw %struct._address, ptr %54, i32 0, i32 1
  %56 = load i32, ptr %55, align 4
  %57 = sext i32 %56 to i64
  %58 = call i32 @memcmp(ptr noundef %50, ptr noundef %53, i64 noundef %57) #21
  store i32 %58, ptr %3, align 4
  br label %59

59:                                               ; preds = %47, %46, %40, %31, %22, %13
  %60 = load i32, ptr %3, align 4
  ret i32 %60
}

; Function Attrs: null_pointer_is_valid sspstrong uwtable
define hidden i32 @compare_headers(ptr noundef %0, ptr noundef %1, i16 noundef zeroext %2, i16 noundef zeroext %3, ptr noundef %4, ptr noundef %5, i16 noundef zeroext %6, i16 noundef zeroext %7, i32 noundef %8) #0 {
  %10 = alloca i32, align 4
  %11 = alloca ptr, align 8
  %12 = alloca ptr, align 8
  %13 = alloca i16, align 2
  %14 = alloca i16, align 2
  %15 = alloca ptr, align 8
  %16 = alloca ptr, align 8
  %17 = alloca i16, align 2
  %18 = alloca i16, align 2
  %19 = alloca i32, align 4
  %20 = alloca i32, align 4
  %21 = alloca i32, align 4
  %22 = alloca i32, align 4
  store ptr %0, ptr %11, align 8
  store ptr %1, ptr %12, align 8
  store i16 %2, ptr %13, align 2
  store i16 %3, ptr %14, align 2
  store ptr %4, ptr %15, align 8
  store ptr %5, ptr %16, align 8
  store i16 %6, ptr %17, align 2
  store i16 %7, ptr %18, align 2
  store i32 %8, ptr %19, align 4
  call void @llvm.lifetime.start.p0(i64 4, ptr %20) #17
  call void @llvm.lifetime.start.p0(i64 4, ptr %21) #17
  %23 = load ptr, ptr %11, align 8
  %24 = load ptr, ptr %15, align 8
  %25 = call i32 @cmp_address(ptr noundef %23, ptr noundef %24)
  %26 = icmp ne i32 %25, 0
  br i1 %26, label %44, label %27

27:                                               ; preds = %9
  %28 = load ptr, ptr %12, align 8
  %29 = load ptr, ptr %16, align 8
  %30 = call i32 @cmp_address(ptr noundef %28, ptr noundef %29)
  %31 = icmp ne i32 %30, 0
  br i1 %31, label %44, label %32

32:                                               ; preds = %27
  %33 = load i16, ptr %13, align 2
  %34 = zext i16 %33 to i32
  %35 = load i16, ptr %17, align 2
  %36 = zext i16 %35 to i32
  %37 = icmp eq i32 %34, %36
  br i1 %37, label %38, label %44

38:                                               ; preds = %32
  %39 = load i16, ptr %14, align 2
  %40 = zext i16 %39 to i32
  %41 = load i16, ptr %18, align 2
  %42 = zext i16 %41 to i32
  %43 = icmp eq i32 %40, %42
  br label %44

44:                                               ; preds = %38, %32, %27, %9
  %45 = phi i1 [ false, %32 ], [ false, %27 ], [ false, %9 ], [ %43, %38 ]
  %46 = zext i1 %45 to i32
  store i32 %46, ptr %20, align 4
  %47 = load i32, ptr %19, align 4
  %48 = icmp eq i32 %47, 0
  br i1 %48, label %49, label %51

49:                                               ; preds = %44
  %50 = load i32, ptr %20, align 4
  store i32 %50, ptr %10, align 4
  store i32 1, ptr %22, align 4
  br label %84

51:                                               ; preds = %44
  %52 = load ptr, ptr %11, align 8
  %53 = load ptr, ptr %16, align 8
  %54 = call i32 @cmp_address(ptr noundef %52, ptr noundef %53)
  %55 = icmp ne i32 %54, 0
  br i1 %55, label %73, label %56

56:                                               ; preds = %51
  %57 = load ptr, ptr %12, align 8
  %58 = load ptr, ptr %15, align 8
  %59 = call i32 @cmp_address(ptr noundef %57, ptr noundef %58)
  %60 = icmp ne i32 %59, 0
  br i1 %60, label %73, label %61

61:                                               ; preds = %56
  %62 = load i16, ptr %13, align 2
  %63 = zext i16 %62 to i32
  %64 = load i16, ptr %18, align 2
  %65 = zext i16 %64 to i32
  %66 = icmp eq i32 %63, %65
  br i1 %66, label %67, label %73

67:                                               ; preds = %61
  %68 = load i16, ptr %14, align 2
  %69 = zext i16 %68 to i32
  %70 = load i16, ptr %17, align 2
  %71 = zext i16 %70 to i32
  %72 = icmp eq i32 %69, %71
  br label %73

73:                                               ; preds = %67, %61, %56, %51
  %74 = phi i1 [ false, %61 ], [ false, %56 ], [ false, %51 ], [ %72, %67 ]
  %75 = zext i1 %74 to i32
  store i32 %75, ptr %21, align 4
  %76 = load i32, ptr %20, align 4
  %77 = icmp ne i32 %76, 0
  br i1 %77, label %81, label %78

78:                                               ; preds = %73
  %79 = load i32, ptr %21, align 4
  %80 = icmp ne i32 %79, 0
  br label %81

81:                                               ; preds = %78, %73
  %82 = phi i1 [ true, %73 ], [ %80, %78 ]
  %83 = zext i1 %82 to i32
  store i32 %83, ptr %10, align 4
  store i32 1, ptr %22, align 4
  br label %84

84:                                               ; preds = %81, %49
  call void @llvm.lifetime.end.p0(i64 4, ptr %21) #17
  call void @llvm.lifetime.end.p0(i64 4, ptr %20) #17
  %85 = load i32, ptr %10, align 4
  ret i32 %85
}