; Function Attrs: mustprogress nofree nounwind null_pointer_is_valid sspstrong willreturn memory(read, inaccessiblemem: none) uwtable
define hidden range(i32 0, 2) i32 @compare_headers(ptr noundef readonly captures(none) %0, ptr noundef readonly captures(none) %1, i16 noundef zeroext %2, i16 noundef zeroext %3, ptr noundef readonly captures(none) %4, ptr noundef readonly captures(none) %5, i16 noundef zeroext %6, i16 noundef zeroext %7, i32 noundef %8) local_unnamed_addr #4 {
  %10 = load i32, ptr %0, align 8
  %11 = load i32, ptr %4, align 8
  %or.cond41.not = icmp eq i32 %10, %11
  br i1 %or.cond41.not, label %12, label %cmp_address.exit.thread

12:                                               ; preds = %9
  %13 = getelementptr inbounds nuw i8, ptr %0, i64 4
  %14 = load i32, ptr %13, align 4
  %15 = getelementptr inbounds nuw i8, ptr %4, i64 4
  %16 = load i32, ptr %15, align 4
  %or.cond42.not = icmp eq i32 %14, %16
  br i1 %or.cond42.not, label %17, label %cmp_address.exit.thread

17:                                               ; preds = %12
  %18 = icmp eq i32 %14, 0
  br i1 %18, label %cmp_address.exit.thread33, label %cmp_address.exit

cmp_address.exit:                                 ; preds = %17
  %19 = getelementptr inbounds nuw i8, ptr %0, i64 8
  %20 = load ptr, ptr %19, align 8
  %21 = getelementptr inbounds nuw i8, ptr %4, i64 8
  %22 = load ptr, ptr %21, align 8
  %23 = sext i32 %14 to i64
  %bcmp = tail call i32 @bcmp(ptr %20, ptr %22, i64 %23)
  %.not = icmp eq i32 %bcmp, 0
  br i1 %.not, label %cmp_address.exit.thread33, label %cmp_address.exit.thread

cmp_address.exit.thread33:                        ; preds = %17, %cmp_address.exit
  %24 = load i32, ptr %1, align 8
  %25 = load i32, ptr %5, align 8
  %or.cond48.not = icmp eq i32 %24, %25
  br i1 %or.cond48.not, label %26, label %cmp_address.exit26

26:                                               ; preds = %cmp_address.exit.thread33
  %27 = getelementptr inbounds nuw i8, ptr %1, i64 4
  %28 = load i32, ptr %27, align 4
  %29 = getelementptr inbounds nuw i8, ptr %5, i64 4
  %30 = load i32, ptr %29, align 4
  %or.cond49.not = icmp eq i32 %28, %30
  br i1 %or.cond49.not, label %31, label %cmp_address.exit26

31:                                               ; preds = %26
  %32 = icmp eq i32 %28, 0
  br i1 %32, label %cmp_address.exit26, label %33

33:                                               ; preds = %31
  %34 = getelementptr inbounds nuw i8, ptr %1, i64 8
  %35 = load ptr, ptr %34, align 8
  %36 = getelementptr inbounds nuw i8, ptr %5, i64 8
  %37 = load ptr, ptr %36, align 8
  %38 = sext i32 %28 to i64
  %bcmp45 = tail call i32 @bcmp(ptr %35, ptr %37, i64 %38)
  %39 = icmp eq i32 %bcmp45, 0
  br label %cmp_address.exit26

cmp_address.exit26:                               ; preds = %cmp_address.exit.thread33, %26, %31, %33
  %.0.i25 = phi i1 [ %39, %33 ], [ false, %cmp_address.exit.thread33 ], [ false, %26 ], [ true, %31 ]
  %40 = icmp eq i16 %2, %6
  %or.cond = and i1 %40, %.0.i25
  %41 = icmp eq i16 %3, %7
  %spec.select = and i1 %41, %or.cond
  br label %cmp_address.exit.thread

cmp_address.exit.thread:                          ; preds = %12, %9, %cmp_address.exit26, %cmp_address.exit
  %42 = phi i1 [ false, %cmp_address.exit ], [ %spec.select, %cmp_address.exit26 ], [ false, %9 ], [ false, %12 ]
  %43 = icmp eq i32 %8, 0
  br i1 %43, label %77, label %44

44:                                               ; preds = %cmp_address.exit.thread
  %45 = load i32, ptr %5, align 8
  %or.cond43.not = icmp eq i32 %10, %45
  br i1 %or.cond43.not, label %46, label %cmp_address.exit28.thread

46:                                               ; preds = %44
  %47 = getelementptr inbounds nuw i8, ptr %0, i64 4
  %48 = load i32, ptr %47, align 4
  %49 = getelementptr inbounds nuw i8, ptr %5, i64 4
  %50 = load i32, ptr %49, align 4
  %or.cond44.not = icmp eq i32 %48, %50
  br i1 %or.cond44.not, label %51, label %cmp_address.exit28.thread

51:                                               ; preds = %46
  %52 = icmp eq i32 %48, 0
  br i1 %52, label %cmp_address.exit28.thread38, label %cmp_address.exit28

cmp_address.exit28:                               ; preds = %51
  %53 = getelementptr inbounds nuw i8, ptr %0, i64 8
  %54 = load ptr, ptr %53, align 8
  %55 = getelementptr inbounds nuw i8, ptr %5, i64 8
  %56 = load ptr, ptr %55, align 8
  %57 = sext i32 %48 to i64
  %bcmp46 = tail call i32 @bcmp(ptr %54, ptr %56, i64 %57)
  %.not21 = icmp eq i32 %bcmp46, 0
  br i1 %.not21, label %cmp_address.exit28.thread38, label %cmp_address.exit28.thread

cmp_address.exit28.thread38:                      ; preds = %51, %cmp_address.exit28
  %58 = load i32, ptr %1, align 8
  %or.cond50.not = icmp eq i32 %58, %11
  br i1 %or.cond50.not, label %59, label %cmp_address.exit30

59:                                               ; preds = %cmp_address.exit28.thread38
  %60 = getelementptr inbounds nuw i8, ptr %1, i64 4
  %61 = load i32, ptr %60, align 4
  %62 = getelementptr inbounds nuw i8, ptr %4, i64 4
  %63 = load i32, ptr %62, align 4
  %or.cond51.not = icmp eq i32 %61, %63
  br i1 %or.cond51.not, label %64, label %cmp_address.exit30

64:                                               ; preds = %59
  %65 = icmp eq i32 %61, 0
  br i1 %65, label %cmp_address.exit30, label %66

66:                                               ; preds = %64
  %67 = getelementptr inbounds nuw i8, ptr %1, i64 8
  %68 = load ptr, ptr %67, align 8
  %69 = getelementptr inbounds nuw i8, ptr %4, i64 8
  %70 = load ptr, ptr %69, align 8
  %71 = sext i32 %61 to i64
  %bcmp47 = tail call i32 @bcmp(ptr %68, ptr %70, i64 %71)
  %72 = icmp eq i32 %bcmp47, 0
  br label %cmp_address.exit30

cmp_address.exit30:                               ; preds = %cmp_address.exit28.thread38, %59, %64, %66
  %.0.i29 = phi i1 [ %72, %66 ], [ false, %cmp_address.exit28.thread38 ], [ false, %59 ], [ true, %64 ]
  %73 = icmp eq i16 %2, %7
  %or.cond23 = and i1 %73, %.0.i29
  %74 = icmp eq i16 %3, %6
  %spec.select24 = and i1 %74, %or.cond23
  br label %cmp_address.exit28.thread

cmp_address.exit28.thread:                        ; preds = %46, %44, %cmp_address.exit30, %cmp_address.exit28
  %75 = phi i1 [ false, %cmp_address.exit28 ], [ %spec.select24, %cmp_address.exit30 ], [ false, %44 ], [ false, %46 ]
  %76 = or i1 %42, %75
  br label %77

77:                                               ; preds = %cmp_address.exit.thread, %cmp_address.exit28.thread
  %.0.in = phi i1 [ %76, %cmp_address.exit28.thread ], [ %42, %cmp_address.exit.thread ]
  %.0 = zext i1 %.0.in to i32
  ret i32 %.0
}